; Function Attrs: mustprogress nounwind uwtable
define dso_local void @_ZN6mygame6rect32D0Ev(ptr noundef nonnull align 8 dereferenceable(40) %this) unnamed_addr #7 align 2 personality ptr @__gxx_personality_v0 {
entry:
  %_internal_metadata_.i = getelementptr inbounds i8, ptr %this, i64 8
  %0 = load ptr, ptr %_internal_metadata_.i, align 8
  %1 = ptrtoint ptr %0 to i64
  %conv.i111.i.i = and i64 %1, 1
  %cmp.i.not.i.i = icmp eq i64 %conv.i111.i.i, 0
  br i1 %cmp.i.not.i.i, label %_ZN6mygame6rect32D2Ev.exit, label %if.then.i.i.i

if.then.i.i.i:                                    ; preds = %entry
  %and.i.i.i = and i64 %1, -2
  %2 = inttoptr i64 %and.i.i.i to ptr
  %3 = load ptr, ptr %2, align 8
  %cmp.i.i = icmp eq ptr %3, null
  br i1 %cmp.i.i, label %delete.notnull.i.i, label %_ZN6mygame6rect32D2Ev.exit

delete.notnull.i.i:                               ; preds = %if.then.i.i.i
  %unknown_fields.i.i.i = getelementptr inbounds i8, ptr %2, i64 8
  %4 = load ptr, ptr %unknown_fields.i.i.i, align 8
  %_M_finish.i.i.i.i.i.i.i = getelementptr inbounds i8, ptr %2, i64 16
  %5 = load ptr, ptr %_M_finish.i.i.i.i.i.i.i, align 8
  %cmp.i.i.i.i.i.i.i = icmp eq ptr %4, %5
  br i1 %cmp.i.i.i.i.i.i.i, label %invoke.cont.i.i.i.i, label %if.then.i.i.i.i.i

if.then.i.i.i.i.i:                                ; preds = %delete.notnull.i.i
  invoke void @_ZN6google8protobuf15UnknownFieldSet13ClearFallbackEv(ptr noundef nonnull align 8 dereferenceable(24) %unknown_fields.i.i.i)
          to label %invoke.contthread-pre-split.i.i.i.i unwind label %terminate.lpad.i.i.i.i

invoke.contthread-pre-split.i.i.i.i:              ; preds = %if.then.i.i.i.i.i
  %.pr.i.i.i.i = load ptr, ptr %unknown_fields.i.i.i, align 8
  br label %invoke.cont.i.i.i.i

invoke.cont.i.i.i.i:                              ; preds = %invoke.contthread-pre-split.i.i.i.i, %delete.notnull.i.i
  %6 = phi ptr [ %.pr.i.i.i.i, %invoke.contthread-pre-split.i.i.i.i ], [ %4, %delete.notnull.i.i ]
  %tobool.not.i.i.i.i.i.i.i = icmp eq ptr %6, null
  br i1 %tobool.not.i.i.i.i.i.i.i, label %_ZN6google8protobuf8internal16InternalMetadata9ContainerINS0_15UnknownFieldSetEED2Ev.exit.i.i, label %if.then.i.i.i.i.i.i.i

if.then.i.i.i.i.i.i.i:                            ; preds = %invoke.cont.i.i.i.i
  tail call void @_ZdlPv(ptr noundef nonnull %6) #24
  br label %_ZN6google8protobuf8internal16InternalMetadata9ContainerINS0_15UnknownFieldSetEED2Ev.exit.i.i

terminate.lpad.i.i.i.i:                           ; preds = %if.then.i.i.i.i.i
  %7 = landingpad { ptr, i32 }
          catch ptr null
  %8 = extractvalue { ptr, i32 } %7, 0
  tail call void @__clang_call_terminate(ptr %8) #21
  unreachable

_ZN6google8protobuf8internal16InternalMetadata9ContainerINS0_15UnknownFieldSetEED2Ev.exit.i.i: ; preds = %if.then.i.i.i.i.i.i.i, %invoke.cont.i.i.i.i
  tail call void @_ZdlPv(ptr noundef nonnull %2) #24
  br label %_ZN6mygame6rect32D2Ev.exit

_ZN6mygame6rect32D2Ev.exit:                       ; preds = %entry, %if.then.i.i.i, %_ZN6google8protobuf8internal16InternalMetadata9ContainerINS0_15UnknownFieldSetEED2Ev.exit.i.i
  tail call void @_ZdlPv(ptr noundef nonnull %this) #24
  ret void
}